; Function Attrs: mustprogress uwtable
define hidden void @_ZN4cvc58internal5proof23LfscListScNodeConverterC2EPNS0_11NodeManagerERNS1_17LfscNodeConverterERKSt13unordered_setINS0_12NodeTemplateILb1EEESt4hashIS9_ESt8equal_toIS9_ESaIS9_EEb(ptr noundef nonnull align 8 dereferenceable(313) %0, ptr noundef %1, ptr noundef nonnull align 8 dereferenceable(768) %2, ptr noundef nonnull align 8 dereferenceable(56) %3, i1 noundef zeroext %4) unnamed_addr #3 align 2 personality ptr @__gxx_personality_v0 {
  %6 = alloca %"struct.std::__detail::_AllocNode", align 8
  tail call void @_ZN4cvc58internal13NodeConverterC2EPNS0_11NodeManagerEb(ptr noundef nonnull align 8 dereferenceable(241) %0, ptr noundef %1, i1 noundef zeroext true)
  store ptr getelementptr inbounds nuw inrange(-16, 64) (i8, ptr @_ZTVN4cvc58internal5proof23LfscListScNodeConverterE, i64 16), ptr %0, align 8, !tbaa !3
  %7 = getelementptr inbounds nuw i8, ptr %0, i64 248
  store ptr %2, ptr %7, align 8, !tbaa !6
  %8 = getelementptr inbounds nuw i8, ptr %0, i64 256
  store ptr null, ptr %8, align 8, !tbaa !10
  %9 = getelementptr inbounds nuw i8, ptr %0, i64 264
  %10 = getelementptr inbounds nuw i8, ptr %3, i64 8
  %11 = load i64, ptr %10, align 8, !tbaa !18
  store i64 %11, ptr %9, align 8, !tbaa !18
  %12 = getelementptr inbounds nuw i8, ptr %0, i64 272
  store ptr null, ptr %12, align 8, !tbaa !19
  %13 = getelementptr inbounds nuw i8, ptr %0, i64 280
  %14 = getelementptr inbounds nuw i8, ptr %3, i64 24
  %15 = load i64, ptr %14, align 8, !tbaa !20
  store i64 %15, ptr %13, align 8, !tbaa !20
  %16 = getelementptr inbounds nuw i8, ptr %0, i64 288
  %17 = getelementptr inbounds nuw i8, ptr %3, i64 32
  tail call void @llvm.memcpy.p0.p0.i64(ptr noundef nonnull align 8 dereferenceable(16) %16, ptr noundef nonnull align 8 dereferenceable(16) %17, i64 16, i1 false), !tbaa.struct !21
  %18 = getelementptr inbounds nuw i8, ptr %0, i64 304
  store ptr null, ptr %18, align 8, !tbaa !24
  call void @llvm.lifetime.start.p0(i64 8, ptr nonnull %6) #21
  store ptr %8, ptr %6, align 8, !tbaa !25
  invoke void @_ZNSt10_HashtableIN4cvc58internal12NodeTemplateILb1EEES3_SaIS3_ENSt8__detail9_IdentityESt8equal_toIS3_ESt4hashIS3_ENS5_18_Mod_range_hashingENS5_20_Default_ranged_hashENS5_20_Prime_rehash_policyENS5_17_Hashtable_traitsILb1ELb1ELb1EEEE9_M_assignIRKSG_NS5_10_AllocNodeISaINS5_10_Hash_nodeIS3_Lb1EEEEEEEEvOT_RKT0_(ptr noundef nonnull align 8 dereferenceable(56) %8, ptr noundef nonnull align 8 dereferenceable(56) %3, ptr noundef nonnull align 8 dereferenceable(8) %6)
          to label %19 unwind label %22

19:                                               ; preds = %5
  call void @llvm.lifetime.end.p0(i64 8, ptr nonnull %6) #21
  %20 = zext i1 %4 to i8
  %21 = getelementptr inbounds nuw i8, ptr %0, i64 312
  store i8 %20, ptr %21, align 8, !tbaa !27
  ret void

22:                                               ; preds = %5
  %23 = landingpad { ptr, i32 }
          cleanup
  call void @_ZN4cvc58internal13NodeConverterD2Ev(ptr noundef nonnull align 8 dereferenceable(241) %0) #21
  resume { ptr, i32 } %23
}